target datalayout = "e-m:e-p270:32:32-p271:32:32-p272:64:64-i64:64-i128:128-f80:128-n8:16:32:64-S128"
target triple = "x86_64-pc-linux-gnu"

@.str = private unnamed_addr constant [4 x i8] c"out\00", align 1
@.str.1 = private unnamed_addr constant [128 x i8] c"generated/home/dtcxzyw/WorkSpace/Projects/compilers/llvm-opt-benchmark/bench/gromacs/gromacs/src/gromacs/gmxana/dens_filter.cpp\00", align 1

; Function Attrs: inlinehint mustprogress uwtable
define internal void @_ZL14gmx_sfree_implIfEvPKcS1_iPT_(ptr noundef %0, ptr noundef %1, i32 noundef %2, ptr noundef %3) #2 {
  %5 = alloca ptr, align 8
  %6 = alloca ptr, align 8
  %7 = alloca i32, align 4
  %8 = alloca ptr, align 8
  store ptr %0, ptr %5, align 8, !tbaa !19
  store ptr %1, ptr %6, align 8, !tbaa !19
  store i32 %2, ptr %7, align 4, !tbaa !4
  store ptr %3, ptr %8, align 8, !tbaa !8
  %9 = load ptr, ptr %5, align 8, !tbaa !19
  %10 = load ptr, ptr %6, align 8, !tbaa !19
  %11 = load i32, ptr %7, align 4, !tbaa !4
  %12 = load ptr, ptr %8, align 8, !tbaa !8
  call void @_Z9save_freePKcS0_iPv(ptr noundef %9, ptr noundef %10, i32 noundef %11, ptr noundef %12)
  ret void
}

; Function Attrs: inlinehint mustprogress uwtable
define internal void @_ZL13gmx_snew_implIfEvPKcS1_iRPT_m(ptr noundef %0, ptr noundef %1, i32 noundef %2, ptr noundef nonnull align 8 dereferenceable(8) %3, i64 noundef %4) #2 {
  %6 = alloca ptr, align 8
  %7 = alloca ptr, align 8
  %8 = alloca i32, align 4
  %9 = alloca ptr, align 8
  %10 = alloca i64, align 8
  store ptr %0, ptr %6, align 8, !tbaa !19
  store ptr %1, ptr %7, align 8, !tbaa !19
  store i32 %2, ptr %8, align 4, !tbaa !4
  store ptr %3, ptr %9, align 8, !tbaa !21
  store i64 %4, ptr %10, align 8, !tbaa !24
  %11 = load ptr, ptr %6, align 8, !tbaa !19
  %12 = load ptr, ptr %7, align 8, !tbaa !19
  %13 = load i32, ptr %8, align 4, !tbaa !4
  %14 = load i64, ptr %10, align 8, !tbaa !24
  %15 = call noundef ptr @_Z11save_callocPKcS0_imm(ptr noundef %11, ptr noundef %12, i32 noundef %13, i64 noundef %14, i64 noundef 4)
  %16 = load ptr, ptr %9, align 8, !tbaa !21
  store ptr %15, ptr %16, align 8, !tbaa !8
  ret void
}

; Function Attrs: mustprogress uwtable
define noundef zeroext i1 @_Z11convolutioniPfiPKf(i32 noundef %0, ptr noundef %1, i32 noundef %2, ptr noundef %3) #0 {
  %5 = alloca i1, align 1
  %6 = alloca i32, align 4
  %7 = alloca ptr, align 8
  %8 = alloca i32, align 4
  %9 = alloca ptr, align 8
  %10 = alloca i32, align 4
  %11 = alloca i32, align 4
  %12 = alloca i32, align 4
  %13 = alloca ptr, align 8
  %14 = alloca i32, align 4
  store i32 %0, ptr %6, align 4, !tbaa !4
  store ptr %1, ptr %7, align 8, !tbaa !8
  store i32 %2, ptr %8, align 4, !tbaa !4
  store ptr %3, ptr %9, align 8, !tbaa !8
  call void @llvm.lifetime.start.p0(i64 4, ptr %10) #7
  call void @llvm.lifetime.start.p0(i64 4, ptr %11) #7
  call void @llvm.lifetime.start.p0(i64 4, ptr %12) #7
  call void @llvm.lifetime.start.p0(i64 8, ptr %13) #7
  %15 = load i32, ptr %6, align 4, !tbaa !4
  %16 = sext i32 %15 to i64
  call void @_ZL13gmx_snew_implIfEvPKcS1_iRPT_m(ptr noundef @.str, ptr noundef @.str.1, i32 noundef 52, ptr noundef nonnull align 8 dereferenceable(8) %13, i64 noundef %16)
  %17 = load ptr, ptr %7, align 8, !tbaa !8
  %18 = icmp ne ptr %17, null
  br i1 %18, label %19, label %22

19:                                               ; preds = %4
  %20 = load ptr, ptr %9, align 8, !tbaa !8
  %21 = icmp ne ptr %20, null
  br i1 %21, label %23, label %22

22:                                               ; preds = %19, %4
  store i1 false, ptr %5, align 1
  store i32 1, ptr %14, align 4
  br label %126

23:                                               ; preds = %19
  %24 = load i32, ptr %6, align 4, !tbaa !4
  %25 = icmp sle i32 %24, 0
  br i1 %25, label %29, label %26

26:                                               ; preds = %23
  %27 = load i32, ptr %8, align 4, !tbaa !4
  %28 = icmp sle i32 %27, 0
  br i1 %28, label %29, label %30

29:                                               ; preds = %26, %23
  store i1 false, ptr %5, align 1
  store i32 1, ptr %14, align 4
  br label %126

30:                                               ; preds = %26
  %31 = load i32, ptr %8, align 4, !tbaa !4
  %32 = sub nsw i32 %31, 1
  store i32 %32, ptr %10, align 4, !tbaa !4
  br label %33

33:                                               ; preds = %66, %30
  %34 = load i32, ptr %10, align 4, !tbaa !4
  %35 = load i32, ptr %6, align 4, !tbaa !4
  %36 = icmp slt i32 %34, %35
  br i1 %36, label %37, label %69

37:                                               ; preds = %33
  %38 = load i32, ptr %10, align 4, !tbaa !4
  store i32 %38, ptr %11, align 4, !tbaa !4
  store i32 0, ptr %12, align 4, !tbaa !4
  br label %39

39:                                               ; preds = %60, %37
  %40 = load i32, ptr %12, align 4, !tbaa !4
  %41 = load i32, ptr %8, align 4, !tbaa !4
  %42 = icmp slt i32 %40, %41
  br i1 %42, label %43, label %65

43:                                               ; preds = %39
  %44 = load ptr, ptr %7, align 8, !tbaa !8
  %45 = load i32, ptr %11, align 4, !tbaa !4
  %46 = sext i32 %45 to i64
  %47 = getelementptr inbounds float, ptr %44, i64 %46
  %48 = load float, ptr %47, align 4, !tbaa !11
  %49 = load ptr, ptr %9, align 8, !tbaa !8
  %50 = load i32, ptr %12, align 4, !tbaa !4
  %51 = sext i32 %50 to i64
  %52 = getelementptr inbounds float, ptr %49, i64 %51
  %53 = load float, ptr %52, align 4, !tbaa !11
  %54 = load ptr, ptr %13, align 8, !tbaa !8
  %55 = load i32, ptr %10, align 4, !tbaa !4
  %56 = sext i32 %55 to i64
  %57 = getelementptr inbounds float, ptr %54, i64 %56
  %58 = load float, ptr %57, align 4, !tbaa !11
  %59 = call float @llvm.fmuladd.f32(float %48, float %53, float %58)
  store float %59, ptr %57, align 4, !tbaa !11
  br label %60

60:                                               ; preds = %43
  %61 = load i32, ptr %11, align 4, !tbaa !4
  %62 = add nsw i32 %61, -1
  store i32 %62, ptr %11, align 4, !tbaa !4
  %63 = load i32, ptr %12, align 4, !tbaa !4
  %64 = add nsw i32 %63, 1
  store i32 %64, ptr %12, align 4, !tbaa !4
  br label %39, !llvm.loop !13

65:                                               ; preds = %39
  br label %66

66:                                               ; preds = %65
  %67 = load i32, ptr %10, align 4, !tbaa !4
  %68 = add nsw i32 %67, 1
  store i32 %68, ptr %10, align 4, !tbaa !4
  br label %33, !llvm.loop !15

69:                                               ; preds = %33
  store i32 0, ptr %10, align 4, !tbaa !4
  br label %70

70:                                               ; preds = %103, %69
  %71 = load i32, ptr %10, align 4, !tbaa !4
  %72 = load i32, ptr %8, align 4, !tbaa !4
  %73 = sub nsw i32 %72, 1
  %74 = icmp slt i32 %71, %73
  br i1 %74, label %75, label %106

75:                                               ; preds = %70
  %76 = load i32, ptr %10, align 4, !tbaa !4
  store i32 %76, ptr %11, align 4, !tbaa !4
  store i32 0, ptr %12, align 4, !tbaa !4
  br label %77

77:                                               ; preds = %97, %75
  %78 = load i32, ptr %11, align 4, !tbaa !4
  %79 = icmp sge i32 %78, 0
  br i1 %79, label %80, label %102

80:                                               ; preds = %77
  %81 = load ptr, ptr %7, align 8, !tbaa !8
  %82 = load i32, ptr %11, align 4, !tbaa !4
  %83 = sext i32 %82 to i64
  %84 = getelementptr inbounds float, ptr %81, i64 %83
  %85 = load float, ptr %84, align 4, !tbaa !11
  %86 = load ptr, ptr %9, align 8, !tbaa !8
  %87 = load i32, ptr %12, align 4, !tbaa !4
  %88 = sext i32 %87 to i64
  %89 = getelementptr inbounds float, ptr %86, i64 %88
  %90 = load float, ptr %89, align 4, !tbaa !11
  %91 = load ptr, ptr %13, align 8, !tbaa !8
  %92 = load i32, ptr %10, align 4, !tbaa !4
  %93 = sext i32 %92 to i64
  %94 = getelementptr inbounds float, ptr %91, i64 %93
  %95 = load float, ptr %94, align 4, !tbaa !11
  %96 = call float @llvm.fmuladd.f32(float %85, float %90, float %95)
  store float %96, ptr %94, align 4, !tbaa !11
  br label %97

97:                                               ; preds = %80
  %98 = load i32, ptr %11, align 4, !tbaa !4
  %99 = add nsw i32 %98, -1
  store i32 %99, ptr %11, align 4, !tbaa !4
  %100 = load i32, ptr %12, align 4, !tbaa !4
  %101 = add nsw i32 %100, 1
  store i32 %101, ptr %12, align 4, !tbaa !4
  br label %77, !llvm.loop !16

102:                                              ; preds = %77
  br label %103

103:                                              ; preds = %102
  %104 = load i32, ptr %10, align 4, !tbaa !4
  %105 = add nsw i32 %104, 1
  store i32 %105, ptr %10, align 4, !tbaa !4
  br label %70, !llvm.loop !17

106:                                              ; preds = %70
  store i32 0, ptr %10, align 4, !tbaa !4
  br label %107

107:                                              ; preds = %121, %106
  %108 = load i32, ptr %10, align 4, !tbaa !4
  %109 = load i32, ptr %6, align 4, !tbaa !4
  %110 = icmp slt i32 %108, %109
  br i1 %110, label %111, label %124

111:                                              ; preds = %107
  %112 = load ptr, ptr %13, align 8, !tbaa !8
  %113 = load i32, ptr %10, align 4, !tbaa !4
  %114 = sext i32 %113 to i64
  %115 = getelementptr inbounds float, ptr %112, i64 %114
  %116 = load float, ptr %115, align 4, !tbaa !11
  %117 = load ptr, ptr %7, align 8, !tbaa !8
  %118 = load i32, ptr %10, align 4, !tbaa !4
  %119 = sext i32 %118 to i64
  %120 = getelementptr inbounds float, ptr %117, i64 %119
  store float %116, ptr %120, align 4, !tbaa !11
  br label %121

121:                                              ; preds = %111
  %122 = load i32, ptr %10, align 4, !tbaa !4
  %123 = add nsw i32 %122, 1
  store i32 %123, ptr %10, align 4, !tbaa !4
  br label %107, !llvm.loop !18

124:                                              ; preds = %107
  %125 = load ptr, ptr %13, align 8, !tbaa !8
  call void @_ZL14gmx_sfree_implIfEvPKcS1_iPT_(ptr noundef @.str, ptr noundef @.str.1, i32 noundef 85, ptr noundef %125)
  store i1 true, ptr %5, align 1
  store i32 1, ptr %14, align 4
  br label %126

126:                                              ; preds = %124, %29, %22
  call void @llvm.lifetime.end.p0(i64 8, ptr %13) #7
  call void @llvm.lifetime.end.p0(i64 4, ptr %12) #7
  call void @llvm.lifetime.end.p0(i64 4, ptr %11) #7
  call void @llvm.lifetime.end.p0(i64 4, ptr %10) #7
  %127 = load i1, ptr %5, align 1
  ret i1 %127
}