; Function Attrs: mustprogress uwtable
define noundef zeroext i1 @_Z11convolutioniPfiPKf(i32 noundef %0, ptr noundef %1, i32 noundef %2, ptr noundef readonly %3) local_unnamed_addr #0 {
  %5 = sext i32 %0 to i64
  %6 = tail call noundef ptr @_Z11save_callocPKcS0_imm(ptr noundef nonnull @.str, ptr noundef nonnull @.str.1, i32 noundef 52, i64 noundef range(i64 -2147483648, 2147483648) %5, i64 noundef 4)
  %7 = icmp ne ptr %1, null
  %8 = icmp ne ptr %3, null
  %or.cond = and i1 %7, %8
  br i1 %or.cond, label %9, label %39

9:                                                ; preds = %4
  %10 = icmp slt i32 %0, 1
  %11 = icmp slt i32 %2, 1
  %or.cond3 = or i1 %10, %11
  br i1 %or.cond3, label %39, label %12

12:                                               ; preds = %9
  %13 = add nsw i32 %2, -1
  %.not = icmp samesign ugt i32 %2, %0
  br i1 %.not, label %.preheader52.preheader, label %.preheader54.us.preheader

.preheader54.us.preheader:                        ; preds = %12
  %14 = zext nneg i32 %13 to i64
  %15 = zext nneg i32 %13 to i64
  %wide.trip.count = zext nneg i32 %2 to i64
  br label %.preheader54.us

.preheader54.us:                                  ; preds = %.preheader54.us.preheader, %._crit_edge.us
  %indvars.iv72 = phi i64 [ %15, %.preheader54.us.preheader ], [ %indvars.iv.next73, %._crit_edge.us ]
  %indvars.iv65 = phi i64 [ %14, %.preheader54.us.preheader ], [ %indvars.iv.next66, %._crit_edge.us ]
  %16 = getelementptr inbounds nuw float, ptr %6, i64 %indvars.iv72
  %.promoted.us = load float, ptr %16, align 4, !tbaa !4
  br label %17

17:                                               ; preds = %.preheader54.us, %17
  %indvars.iv67 = phi i64 [ %indvars.iv65, %.preheader54.us ], [ %indvars.iv.next68, %17 ]
  %indvars.iv = phi i64 [ 0, %.preheader54.us ], [ %indvars.iv.next, %17 ]
  %18 = phi float [ %.promoted.us, %.preheader54.us ], [ %23, %17 ]
  %19 = getelementptr inbounds float, ptr %1, i64 %indvars.iv67
  %20 = load float, ptr %19, align 4, !tbaa !4
  %21 = getelementptr inbounds nuw float, ptr %3, i64 %indvars.iv
  %22 = load float, ptr %21, align 4, !tbaa !4
  %23 = tail call float @llvm.fmuladd.f32(float %20, float %22, float %18)
  store float %23, ptr %16, align 4, !tbaa !4
  %indvars.iv.next68 = add nsw i64 %indvars.iv67, -1
  %indvars.iv.next = add nuw nsw i64 %indvars.iv, 1
  %exitcond.not = icmp eq i64 %indvars.iv.next, %wide.trip.count
  br i1 %exitcond.not, label %._crit_edge.us, label %17, !llvm.loop !8

._crit_edge.us:                                   ; preds = %17
  %indvars.iv.next73 = add nuw nsw i64 %indvars.iv72, 1
  %indvars.iv.next66 = add nuw nsw i64 %indvars.iv65, 1
  %24 = trunc nuw i64 %indvars.iv.next73 to i32
  %25 = icmp sgt i32 %0, %24
  br i1 %25, label %.preheader54.us, label %.preheader53, !llvm.loop !10

.preheader53:                                     ; preds = %._crit_edge.us
  %26 = icmp sgt i32 %2, 1
  br i1 %26, label %.preheader52.preheader, label %.preheader

.preheader52.preheader:                           ; preds = %12, %.preheader53
  %wide.trip.count93 = zext nneg i32 %13 to i64
  br label %.lr.ph

.lr.ph:                                           ; preds = %._crit_edge, %.preheader52.preheader
  %indvars.iv88 = phi i64 [ 1, %.preheader52.preheader ], [ %indvars.iv.next89, %._crit_edge ]
  %indvars.iv77 = phi i64 [ 0, %.preheader52.preheader ], [ %indvars.iv.next78, %._crit_edge ]
  %27 = getelementptr inbounds nuw float, ptr %6, i64 %indvars.iv77
  %.promoted = load float, ptr %27, align 4, !tbaa !4
  br label %29

.preheader:                                       ; preds = %._crit_edge, %.preheader53
  %28 = icmp sgt i32 %0, 0
  br i1 %28, label %.lr.ph62.preheader, label %._crit_edge63

.lr.ph62.preheader:                               ; preds = %.preheader
  %wide.trip.count98 = zext nneg i32 %0 to i64
  br label %.lr.ph62

29:                                               ; preds = %.lr.ph, %29
  %indvars.iv79 = phi i64 [ %indvars.iv77, %.lr.ph ], [ %indvars.iv.next80, %29 ]
  %indvars.iv75 = phi i64 [ 0, %.lr.ph ], [ %indvars.iv.next76, %29 ]
  %30 = phi float [ %.promoted, %.lr.ph ], [ %35, %29 ]
  %31 = getelementptr inbounds nuw float, ptr %1, i64 %indvars.iv79
  %32 = load float, ptr %31, align 4, !tbaa !4
  %33 = getelementptr inbounds nuw float, ptr %3, i64 %indvars.iv75
  %34 = load float, ptr %33, align 4, !tbaa !4
  %35 = tail call float @llvm.fmuladd.f32(float %32, float %34, float %30)
  store float %35, ptr %27, align 4, !tbaa !4
  %indvars.iv.next80 = add nsw i64 %indvars.iv79, -1
  %indvars.iv.next76 = add nuw nsw i64 %indvars.iv75, 1
  %exitcond87.not = icmp eq i64 %indvars.iv.next76, %indvars.iv88
  br i1 %exitcond87.not, label %._crit_edge, label %29, !llvm.loop !11

._crit_edge:                                      ; preds = %29
  %indvars.iv.next78 = add nuw nsw i64 %indvars.iv77, 1
  %indvars.iv.next89 = add nuw nsw i64 %indvars.iv88, 1
  %exitcond94.not = icmp eq i64 %indvars.iv.next78, %wide.trip.count93
  br i1 %exitcond94.not, label %.preheader, label %.lr.ph, !llvm.loop !12

.lr.ph62:                                         ; preds = %.lr.ph62.preheader, %.lr.ph62
  %indvars.iv95 = phi i64 [ 0, %.lr.ph62.preheader ], [ %indvars.iv.next96, %.lr.ph62 ]
  %36 = getelementptr inbounds nuw float, ptr %6, i64 %indvars.iv95
  %37 = load float, ptr %36, align 4, !tbaa !4
  %38 = getelementptr inbounds nuw float, ptr %1, i64 %indvars.iv95
  store float %37, ptr %38, align 4, !tbaa !4
  %indvars.iv.next96 = add nuw nsw i64 %indvars.iv95, 1
  %exitcond99.not = icmp eq i64 %indvars.iv.next96, %wide.trip.count98
  br i1 %exitcond99.not, label %._crit_edge63, label %.lr.ph62, !llvm.loop !13

._crit_edge63:                                    ; preds = %.lr.ph62, %.preheader
  tail call void @_Z9save_freePKcS0_iPv(ptr noundef nonnull @.str, ptr noundef nonnull @.str.1, i32 noundef 85, ptr noundef nonnull %6)
  br label %39

39:                                               ; preds = %9, %4, %._crit_edge63
  %.044 = phi i1 [ true, %._crit_edge63 ], [ false, %4 ], [ false, %9 ]
  ret i1 %.044
}